; Function Attrs: mustprogress norecurse uwtable
define internal fastcc void @_ZN12_GLOBAL__N_19NinjaMainC2EPKcRK11BuildConfig(ptr noundef nonnull align 8 dereferenceable(536) %0, ptr noundef %1, ptr noundef nonnull align 8 dereferenceable(25) %2) unnamed_addr #10 align 2 personality ptr @__gxx_personality_v0 {
  store ptr getelementptr inbounds ({ [3 x ptr] }, ptr @_ZTVN12_GLOBAL__N_19NinjaMainE, i64 0, i32 0, i64 2), ptr %0, align 8
  %4 = getelementptr inbounds i8, ptr %0, i64 8
  store ptr %1, ptr %4, align 8
  %5 = getelementptr inbounds i8, ptr %0, i64 16
  store ptr %2, ptr %5, align 8
  %6 = getelementptr inbounds i8, ptr %0, i64 24
  tail call void @_ZN5StateC1Ev(ptr noundef nonnull align 8 dereferenceable(264) %6)
  %7 = getelementptr inbounds i8, ptr %0, i64 288
  invoke void @_ZN17RealDiskInterfaceC1Ev(ptr noundef nonnull align 8 dereferenceable(8) %7)
          to label %8 unwind label %19

8:                                                ; preds = %3
  %9 = getelementptr inbounds i8, ptr %0, i64 296
  tail call void @_ZNSt7__cxx1112basic_stringIcSt11char_traitsIcESaIcEEC1Ev(ptr noundef nonnull align 8 dereferenceable(32) %9) #26
  %10 = getelementptr inbounds i8, ptr %0, i64 328
  invoke void @_ZN8BuildLogC1Ev(ptr noundef nonnull align 8 dereferenceable(97) %10)
          to label %11 unwind label %21

11:                                               ; preds = %8
  %12 = getelementptr inbounds i8, ptr %0, i64 432
  store i8 0, ptr %12, align 8
  %13 = getelementptr inbounds i8, ptr %0, i64 440
  store ptr null, ptr %13, align 8
  %14 = getelementptr inbounds i8, ptr %0, i64 448
  tail call void @_ZNSt7__cxx1112basic_stringIcSt11char_traitsIcESaIcEEC1Ev(ptr noundef nonnull align 8 dereferenceable(32) %14) #26
  %15 = getelementptr inbounds i8, ptr %0, i64 480
  tail call void @llvm.memset.p0.i64(ptr noundef nonnull align 8 dereferenceable(48) %15, i8 0, i64 48, i1 false)
  %16 = invoke noundef i64 @_Z13GetTimeMillisv()
          to label %17 unwind label %23

17:                                               ; preds = %11
  %18 = getelementptr inbounds i8, ptr %0, i64 528
  store i64 %16, ptr %18, align 8
  ret void

19:                                               ; preds = %3
  %20 = landingpad { ptr, i32 }
          cleanup
  br label %26

21:                                               ; preds = %8
  %22 = landingpad { ptr, i32 }
          cleanup
  br label %25

23:                                               ; preds = %11
  %24 = landingpad { ptr, i32 }
          cleanup
  tail call void @_ZN7DepsLogD1Ev(ptr noundef nonnull align 8 dereferenceable(96) %12) #26
  tail call void @_ZN8BuildLogD1Ev(ptr noundef nonnull align 8 dereferenceable(97) %10) #26
  br label %25

25:                                               ; preds = %23, %21
  %.pn = phi { ptr, i32 } [ %24, %23 ], [ %22, %21 ]
  tail call void @_ZNSt7__cxx1112basic_stringIcSt11char_traitsIcESaIcEED1Ev(ptr noundef nonnull align 8 dereferenceable(32) %9) #26
  br label %26

26:                                               ; preds = %25, %19
  %.pn.pn = phi { ptr, i32 } [ %.pn, %25 ], [ %20, %19 ]
  tail call void @_ZN5StateD2Ev(ptr noundef nonnull align 8 dereferenceable(264) %6) #26
  resume { ptr, i32 } %.pn.pn
}